; Function Attrs: nounwind uwtable
define hidden void @zif_chr(ptr noundef %0, ptr noundef writeonly captures(none) %1) local_unnamed_addr #0 {
  %3 = alloca i64, align 8
  call void @llvm.lifetime.start.p0(i64 8, ptr nonnull %3) #28
  %4 = getelementptr inbounds nuw i8, ptr %0, i64 44
  %5 = load i32, ptr %4, align 4, !tbaa !10
  %cond = icmp eq i32 %5, 1
  br i1 %cond, label %6, label %.thread51, !prof !11

.thread51:                                        ; preds = %2
  tail call void @zend_wrong_parameters_count_error(i32 noundef 1, i32 noundef 1) #28
  br label %12

6:                                                ; preds = %2
  %7 = getelementptr inbounds nuw i8, ptr %0, i64 80
  %8 = getelementptr inbounds nuw i8, ptr %0, i64 88
  %9 = load i8, ptr %8, align 8, !tbaa !10
  %10 = icmp eq i8 %9, 4
  br i1 %10, label %.critedge, label %zend_parse_arg_long_ex.exit, !prof !12

zend_parse_arg_long_ex.exit:                      ; preds = %6
  %11 = call zeroext i1 @zend_parse_arg_long_slow(ptr noundef nonnull %7, ptr noundef nonnull %3, i32 noundef 1) #28
  br i1 %11, label %.critedge, label %12, !prof !31

12:                                               ; preds = %zend_parse_arg_long_ex.exit, %.thread51
  %.058 = phi i32 [ 0, %.thread51 ], [ 1, %zend_parse_arg_long_ex.exit ]
  %.03657 = phi ptr [ null, %.thread51 ], [ %7, %zend_parse_arg_long_ex.exit ]
  %.03856 = phi i32 [ 1, %.thread51 ], [ 9, %zend_parse_arg_long_ex.exit ]
  call void @zend_wrong_parameter_error(i32 noundef %.03856, i32 noundef %.058, ptr noundef null, i32 noundef 0, ptr noundef %.03657) #28
  br label %18

.critedge:                                        ; preds = %zend_parse_arg_long_ex.exit, %6
  %.in = phi ptr [ %7, %6 ], [ %3, %zend_parse_arg_long_ex.exit ]
  %13 = load i64, ptr %.in, align 8, !tbaa !10
  %14 = and i64 %13, 255
  %15 = getelementptr inbounds nuw [256 x ptr], ptr @zend_one_char_string, i64 0, i64 %14
  %16 = load ptr, ptr %15, align 8, !tbaa !13
  store ptr %16, ptr %1, align 8, !tbaa !10
  %17 = getelementptr inbounds nuw i8, ptr %1, i64 8
  store i32 6, ptr %17, align 8, !tbaa !10
  br label %18

18:                                               ; preds = %12, %.critedge
  call void @llvm.lifetime.end.p0(i64 8, ptr nonnull %3) #28
  ret void
}